target datalayout = "e-m:e-p270:32:32-p271:32:32-p272:64:64-i64:64-i128:128-f80:128-n8:16:32:64-S128"
target triple = "x86_64-pc-linux-gnu"

%struct.dirent = type { i64, i64, i16, i8, [256 x i8] }

@.str.75 = private unnamed_addr constant [2 x i8] c".\00", align 1
@.str.76 = private unnamed_addr constant [5 x i8] c".png\00", align 1
@.str.77 = private unnamed_addr constant [6 x i8] c".cube\00", align 1
@.str.78 = private unnamed_addr constant [5 x i8] c".3dl\00", align 1
@.str.79 = private unnamed_addr constant [5 x i8] c".gmz\00", align 1

; Function Attrs: nounwind uwtable
define hidden i32 @check_extension(ptr noundef %0) #0 {
  %2 = alloca i32, align 4
  %3 = alloca ptr, align 8
  %4 = alloca ptr, align 8
  %5 = alloca i32, align 4
  %6 = alloca i32, align 4
  %7 = alloca ptr, align 8
  %8 = alloca ptr, align 8
  store ptr %0, ptr %3, align 8, !tbaa !176
  call void @llvm.lifetime.start.p0(i64 8, ptr %4) #13
  %9 = load ptr, ptr %3, align 8, !tbaa !176
  %10 = getelementptr inbounds nuw %struct.dirent, ptr %9, i32 0, i32 4
  %11 = getelementptr inbounds [256 x i8], ptr %10, i64 0, i64 0
  store ptr %11, ptr %4, align 8, !tbaa !41
  call void @llvm.lifetime.start.p0(i64 4, ptr %5) #13
  store i32 0, ptr %5, align 4, !tbaa !16
  %12 = load ptr, ptr %4, align 8, !tbaa !41
  %13 = icmp ne ptr %12, null
  br i1 %13, label %14, label %19

14:                                               ; preds = %1
  %15 = load ptr, ptr %4, align 8, !tbaa !41
  %16 = getelementptr inbounds i8, ptr %15, i64 0
  %17 = load i8, ptr %16, align 1, !tbaa !47
  %18 = icmp ne i8 %17, 0
  br i1 %18, label %21, label %19

19:                                               ; preds = %14, %1
  %20 = load i32, ptr %5, align 4, !tbaa !16
  store i32 %20, ptr %2, align 4
  store i32 1, ptr %6, align 4
  br label %52

21:                                               ; preds = %14
  call void @llvm.lifetime.start.p0(i64 8, ptr %7) #13
  %22 = load ptr, ptr %4, align 8, !tbaa !41
  %23 = call ptr @g_strrstr(ptr noundef %22, ptr noundef @.str.75)
  store ptr %23, ptr %7, align 8, !tbaa !41
  %24 = load ptr, ptr %7, align 8, !tbaa !41
  %25 = icmp ne ptr %24, null
  br i1 %25, label %28, label %26

26:                                               ; preds = %21
  %27 = load i32, ptr %5, align 4, !tbaa !16
  store i32 %27, ptr %2, align 4
  store i32 1, ptr %6, align 4
  br label %51

28:                                               ; preds = %21
  call void @llvm.lifetime.start.p0(i64 8, ptr %8) #13
  %29 = load ptr, ptr %7, align 8, !tbaa !41
  %30 = call noalias ptr @g_strdup(ptr noundef %29)
  %31 = call noalias ptr @g_ascii_strdown(ptr noundef %30, i64 noundef -1)
  store ptr %31, ptr %8, align 8, !tbaa !41
  %32 = load ptr, ptr %8, align 8, !tbaa !41
  %33 = call i32 @g_strcmp0(ptr noundef %32, ptr noundef @.str.76)
  %34 = icmp ne i32 %33, 0
  br i1 %34, label %35, label %47

35:                                               ; preds = %28
  %36 = load ptr, ptr %8, align 8, !tbaa !41
  %37 = call i32 @g_strcmp0(ptr noundef %36, ptr noundef @.str.77)
  %38 = icmp ne i32 %37, 0
  br i1 %38, label %39, label %47

39:                                               ; preds = %35
  %40 = load ptr, ptr %8, align 8, !tbaa !41
  %41 = call i32 @g_strcmp0(ptr noundef %40, ptr noundef @.str.78)
  %42 = icmp ne i32 %41, 0
  br i1 %42, label %43, label %47

43:                                               ; preds = %39
  %44 = load ptr, ptr %8, align 8, !tbaa !41
  %45 = call i32 @g_strcmp0(ptr noundef %44, ptr noundef @.str.79)
  %46 = icmp ne i32 %45, 0
  br i1 %46, label %48, label %47

47:                                               ; preds = %43, %39, %35, %28
  store i32 1, ptr %5, align 4, !tbaa !16
  br label %48

48:                                               ; preds = %47, %43
  %49 = load ptr, ptr %8, align 8, !tbaa !41
  call void @g_free(ptr noundef %49)
  %50 = load i32, ptr %5, align 4, !tbaa !16
  store i32 %50, ptr %2, align 4
  store i32 1, ptr %6, align 4
  call void @llvm.lifetime.end.p0(i64 8, ptr %8) #13
  br label %51

51:                                               ; preds = %48, %26
  call void @llvm.lifetime.end.p0(i64 8, ptr %7) #13
  br label %52

52:                                               ; preds = %51, %19
  call void @llvm.lifetime.end.p0(i64 4, ptr %5) #13
  call void @llvm.lifetime.end.p0(i64 8, ptr %4) #13
  %53 = load i32, ptr %2, align 4
  ret i32 %53
}