; Function Attrs: nounwind uwtable
define hidden range(i32 0, 2) i32 @check_extension(ptr noundef %0) #1 {
  %2 = getelementptr inbounds nuw i8, ptr %0, i64 19
  %3 = load i8, ptr %2, align 1, !tbaa !73
  %.not = icmp eq i8 %3, 0
  br i1 %.not, label %18, label %4

4:                                                ; preds = %1
  %5 = tail call ptr @g_strrstr(ptr noundef nonnull %2, ptr noundef nonnull @.str.75) #25
  %.not16 = icmp eq ptr %5, null
  br i1 %.not16, label %18, label %6

6:                                                ; preds = %4
  %7 = tail call noalias ptr @g_strdup(ptr noundef nonnull %5) #25
  %8 = tail call noalias ptr @g_ascii_strdown(ptr noundef %7, i64 noundef -1) #25
  %9 = tail call i32 @g_strcmp0(ptr noundef %8, ptr noundef nonnull @.str.76) #25
  %.not17 = icmp eq i32 %9, 0
  br i1 %.not17, label %16, label %10

10:                                               ; preds = %6
  %11 = tail call i32 @g_strcmp0(ptr noundef %8, ptr noundef nonnull @.str.77) #25
  %.not18 = icmp eq i32 %11, 0
  br i1 %.not18, label %16, label %12

12:                                               ; preds = %10
  %13 = tail call i32 @g_strcmp0(ptr noundef %8, ptr noundef nonnull @.str.78) #25
  %.not19 = icmp eq i32 %13, 0
  br i1 %.not19, label %16, label %14

14:                                               ; preds = %12
  %15 = tail call i32 @g_strcmp0(ptr noundef %8, ptr noundef nonnull @.str.79) #25
  %.not20 = icmp eq i32 %15, 0
  br i1 %.not20, label %16, label %17

16:                                               ; preds = %14, %12, %10, %6
  br label %17

17:                                               ; preds = %16, %14
  %.014 = phi i32 [ 0, %14 ], [ 1, %16 ]
  tail call void @g_free(ptr noundef %8) #25
  br label %18

18:                                               ; preds = %17, %4, %1
  %.0 = phi i32 [ 0, %1 ], [ %.014, %17 ], [ 0, %4 ]
  ret i32 %.0
}